target datalayout = "e-m:e-p270:32:32-p271:32:32-p272:64:64-i64:64-i128:128-f80:128-n8:16:32:64-S128"
target triple = "x86_64-pc-linux-gnu"

%"class.llvm::SmallVectorBase" = type { ptr, i32, i32 }
%"class.(anonymous namespace)::DefaultPriorityAdvisorAnalysis" = type <{ %"class.llvm::RegAllocPriorityAdvisorAnalysis", i8, [7 x i8] }>
%"class.llvm::RegAllocPriorityAdvisorAnalysis" = type { %"class.llvm::ImmutablePass.base", i32 }
%"class.llvm::ImmutablePass.base" = type { %"class.llvm::ModulePass.base" }
%"class.llvm::ModulePass.base" = type { %"class.llvm::Pass.base" }
%"class.llvm::Pass.base" = type <{ ptr, ptr, ptr, i32 }>
%"class.llvm::SmallVectorBase.21" = type { ptr, i64, i64 }
%"class.llvm::SmallVectorImpl.124" = type { %"class.llvm::SmallVectorTemplateBase.125" }
%"class.llvm::SmallVectorTemplateBase.125" = type { %"class.llvm::SmallVectorTemplateCommon.126" }
%"class.llvm::SmallVectorTemplateCommon.126" = type { %"class.llvm::SmallVectorBase" }
%"class.llvm::ilist_node_base" = type { %"class.llvm::ilist_detail::node_base_prevnext" }
%"class.llvm::ilist_detail::node_base_prevnext" = type { ptr, ptr }
%"struct.llvm::Align" = type { i8 }
%"class.llvm::Twine" = type <{ %"union.llvm::Twine::Child", %"union.llvm::Twine::Child", i8, i8, [6 x i8] }>
%"union.llvm::Twine::Child" = type { %struct.anon }
%struct.anon = type { ptr, i64 }
%"class.llvm::Module" = type <{ ptr, %"class.llvm::SymbolTableList", %"class.llvm::SymbolTableList.316", %"class.llvm::SymbolTableList.325", %"class.llvm::SymbolTableList.334", %"class.llvm::iplist.343", %"class.std::__cxx11::basic_string", %"class.std::unique_ptr.354", %"class.llvm::StringMap.362", %"class.std::unique_ptr.363", %"class.std::unique_ptr.371", %"class.std::__cxx11::basic_string", %"class.std::__cxx11::basic_string", %"class.std::__cxx11::basic_string", %"class.llvm::StringMap.379", %"class.llvm::DataLayout", %"class.llvm::StringMap.407", %"class.llvm::DenseMap.408", ptr, i8, [7 x i8] }>
%"class.llvm::SymbolTableList" = type { %"class.llvm::iplist_impl.309" }
%"class.llvm::iplist_impl.309" = type { %"class.llvm::simple_ilist.311" }
%"class.llvm::simple_ilist.311" = type { %"class.llvm::ilist_sentinel.313" }
%"class.llvm::ilist_sentinel.313" = type { %"class.llvm::ilist_node_impl.314" }
%"class.llvm::ilist_node_impl.314" = type { %"class.llvm::ilist_node_base" }
%"class.llvm::SymbolTableList.316" = type { %"class.llvm::iplist_impl.317" }
%"class.llvm::iplist_impl.317" = type { %"class.llvm::simple_ilist.320" }
%"class.llvm::simple_ilist.320" = type { %"class.llvm::ilist_sentinel.322" }
%"class.llvm::ilist_sentinel.322" = type { %"class.llvm::ilist_node_impl.323" }
%"class.llvm::ilist_node_impl.323" = type { %"class.llvm::ilist_node_base" }
%"class.llvm::SymbolTableList.325" = type { %"class.llvm::iplist_impl.326" }
%"class.llvm::iplist_impl.326" = type { %"class.llvm::simple_ilist.329" }
%"class.llvm::simple_ilist.329" = type { %"class.llvm::ilist_sentinel.331" }
%"class.llvm::ilist_sentinel.331" = type { %"class.llvm::ilist_node_impl.332" }
%"class.llvm::ilist_node_impl.332" = type { %"class.llvm::ilist_node_base" }
%"class.llvm::SymbolTableList.334" = type { %"class.llvm::iplist_impl.335" }
%"class.llvm::iplist_impl.335" = type { %"class.llvm::simple_ilist.338" }
%"class.llvm::simple_ilist.338" = type { %"class.llvm::ilist_sentinel.340" }
%"class.llvm::ilist_sentinel.340" = type { %"class.llvm::ilist_node_impl.341" }
%"class.llvm::ilist_node_impl.341" = type { %"class.llvm::ilist_node_base" }
%"class.llvm::iplist.343" = type { %"class.llvm::iplist_impl.344" }
%"class.llvm::iplist_impl.344" = type { %"class.llvm::simple_ilist.349" }
%"class.llvm::simple_ilist.349" = type { %"class.llvm::ilist_sentinel.351" }
%"class.llvm::ilist_sentinel.351" = type { %"class.llvm::ilist_node_impl.352" }
%"class.llvm::ilist_node_impl.352" = type { %"class.llvm::ilist_node_base" }
%"class.std::unique_ptr.354" = type { %"struct.std::__uniq_ptr_data.355" }
%"struct.std::__uniq_ptr_data.355" = type { %"class.std::__uniq_ptr_impl.356" }
%"class.std::__uniq_ptr_impl.356" = type { %"class.std::tuple.357" }
%"class.std::tuple.357" = type { %"struct.std::_Tuple_impl.358" }
%"struct.std::_Tuple_impl.358" = type { %"struct.std::_Head_base.361" }
%"struct.std::_Head_base.361" = type { ptr }
%"class.llvm::StringMap.362" = type { %"class.llvm::StringMapImpl" }
%"class.llvm::StringMapImpl" = type { ptr, i32, i32, i32, i32 }
%"class.std::unique_ptr.363" = type { %"struct.std::__uniq_ptr_data.364" }
%"struct.std::__uniq_ptr_data.364" = type { %"class.std::__uniq_ptr_impl.365" }
%"class.std::__uniq_ptr_impl.365" = type { %"class.std::tuple.366" }
%"class.std::tuple.366" = type { %"struct.std::_Tuple_impl.367" }
%"struct.std::_Tuple_impl.367" = type { %"struct.std::_Head_base.370" }
%"struct.std::_Head_base.370" = type { ptr }
%"class.std::unique_ptr.371" = type { %"struct.std::__uniq_ptr_data.372" }
%"struct.std::__uniq_ptr_data.372" = type { %"class.std::__uniq_ptr_impl.373" }
%"class.std::__uniq_ptr_impl.373" = type { %"class.std::tuple.374" }
%"class.std::tuple.374" = type { %"struct.std::_Tuple_impl.375" }
%"struct.std::_Tuple_impl.375" = type { %"struct.std::_Head_base.378" }
%"struct.std::_Head_base.378" = type { ptr }
%"class.std::__cxx11::basic_string" = type { %"struct.std::__cxx11::basic_string<char>::_Alloc_hider", i64, %union.anon }
%"struct.std::__cxx11::basic_string<char>::_Alloc_hider" = type { ptr }
%union.anon = type { i64, [8 x i8] }
%"class.llvm::StringMap.379" = type { %"class.llvm::StringMapImpl" }
%"class.llvm::DataLayout" = type { i8, i32, i32, i32, %"struct.llvm::MaybeAlign", %"struct.llvm::MaybeAlign", i32, i32, %"class.llvm::SmallVector.386", %"class.llvm::SmallVector.391", %"class.llvm::SmallVector.396", %"class.llvm::SmallVector.398", %"class.llvm::SmallVector.400", %"class.std::__cxx11::basic_string", %"struct.llvm::Align", %"struct.llvm::Align", ptr, %"class.llvm::SmallVector.405" }
%"struct.llvm::MaybeAlign" = type { %"class.std::optional.380" }
%"class.std::optional.380" = type { %"struct.std::_Optional_base.381" }
%"struct.std::_Optional_base.381" = type { %"struct.std::_Optional_payload.383" }
%"struct.std::_Optional_payload.383" = type { %"struct.std::_Optional_payload_base.384" }
%"struct.std::_Optional_payload_base.384" = type { %"union.std::_Optional_payload_base<llvm::Align>::_Storage", i8 }
%"union.std::_Optional_payload_base<llvm::Align>::_Storage" = type { %"struct.std::_Optional_payload_base<llvm::Align>::_Empty_byte" }
%"struct.std::_Optional_payload_base<llvm::Align>::_Empty_byte" = type { i8 }
%"class.llvm::SmallVector.386" = type { %"class.llvm::SmallVectorImpl.387", %"struct.llvm::SmallVectorStorage.390" }
%"class.llvm::SmallVectorImpl.387" = type { %"class.llvm::SmallVectorTemplateBase.388" }
%"class.llvm::SmallVectorTemplateBase.388" = type { %"class.llvm::SmallVectorTemplateCommon.389" }
%"class.llvm::SmallVectorTemplateCommon.389" = type { %"class.llvm::SmallVectorBase.21" }
%"struct.llvm::SmallVectorStorage.390" = type { [8 x i8] }
%"class.llvm::SmallVector.391" = type { %"class.llvm::SmallVectorImpl.392", %"struct.llvm::SmallVectorStorage.395" }
%"class.llvm::SmallVectorImpl.392" = type { %"class.llvm::SmallVectorTemplateBase.393" }
%"class.llvm::SmallVectorTemplateBase.393" = type { %"class.llvm::SmallVectorTemplateCommon.394" }
%"class.llvm::SmallVectorTemplateCommon.394" = type { %"class.llvm::SmallVectorBase" }
%"struct.llvm::SmallVectorStorage.395" = type { [48 x i8] }
%"class.llvm::SmallVector.396" = type { %"class.llvm::SmallVectorImpl.392", %"struct.llvm::SmallVectorStorage.397" }
%"struct.llvm::SmallVectorStorage.397" = type { [32 x i8] }
%"class.llvm::SmallVector.398" = type { %"class.llvm::SmallVectorImpl.392", %"struct.llvm::SmallVectorStorage.399" }
%"struct.llvm::SmallVectorStorage.399" = type { [80 x i8] }
%"class.llvm::SmallVector.400" = type { %"class.llvm::SmallVectorImpl.401", %"struct.llvm::SmallVectorStorage.404" }
%"class.llvm::SmallVectorImpl.401" = type { %"class.llvm::SmallVectorTemplateBase.402" }
%"class.llvm::SmallVectorTemplateBase.402" = type { %"class.llvm::SmallVectorTemplateCommon.403" }
%"class.llvm::SmallVectorTemplateCommon.403" = type { %"class.llvm::SmallVectorBase" }
%"struct.llvm::SmallVectorStorage.404" = type { [128 x i8] }
%"class.llvm::SmallVector.405" = type { %"class.llvm::SmallVectorImpl.124", %"struct.llvm::SmallVectorStorage.406" }
%"struct.llvm::SmallVectorStorage.406" = type { [32 x i8] }
%"class.llvm::StringMap.407" = type { %"class.llvm::StringMapImpl" }
%"class.llvm::DenseMap.408" = type <{ ptr, i32, i32, i32, [4 x i8] }>

@.str.15 = private unnamed_addr constant [77 x i8] c"Requested regalloc priority advisor analysis could be created. Using default\00", align 1

; Function Attrs: mustprogress nounwind uwtable
define linkonce_odr hidden noundef zeroext i1 @_ZN4llvm4Pass16doInitializationERNS_6ModuleE(ptr noundef nonnull align 8 dereferenceable(28) %0, ptr noundef nonnull align 8 dereferenceable(857) %1) unnamed_addr #1 comdat align 2 {
  %3 = alloca ptr, align 8
  %4 = alloca ptr, align 8
  store ptr %0, ptr %3, align 8
  store ptr %1, ptr %4, align 8
  ret i1 false
}

; Function Attrs: mustprogress nounwind uwtable
define linkonce_odr hidden void @_ZN4llvm5TwineC2EPKc(ptr noundef nonnull align 8 dereferenceable(34) %0, ptr noundef %1) unnamed_addr #1 comdat align 2 {
  %3 = alloca ptr, align 8
  %4 = alloca ptr, align 8
  store ptr %0, ptr %3, align 8
  store ptr %1, ptr %4, align 8
  %5 = load ptr, ptr %3, align 8
  %6 = getelementptr inbounds nuw %"class.llvm::Twine", ptr %5, i32 0, i32 2
  store i8 1, ptr %6, align 8
  %7 = getelementptr inbounds nuw %"class.llvm::Twine", ptr %5, i32 0, i32 3
  store i8 1, ptr %7, align 1
  %8 = load ptr, ptr %4, align 8
  %9 = getelementptr inbounds i8, ptr %8, i64 0
  %10 = load i8, ptr %9, align 1
  %11 = sext i8 %10 to i32
  %12 = icmp ne i32 %11, 0
  br i1 %12, label %13, label %17

13:                                               ; preds = %2
  %14 = load ptr, ptr %4, align 8
  %15 = getelementptr inbounds nuw %"class.llvm::Twine", ptr %5, i32 0, i32 0
  store ptr %14, ptr %15, align 8
  %16 = getelementptr inbounds nuw %"class.llvm::Twine", ptr %5, i32 0, i32 2
  store i8 3, ptr %16, align 8
  br label %19

17:                                               ; preds = %2
  %18 = getelementptr inbounds nuw %"class.llvm::Twine", ptr %5, i32 0, i32 2
  store i8 1, ptr %18, align 8
  br label %19

19:                                               ; preds = %17, %13
  ret void
}

; Function Attrs: mustprogress nounwind uwtable
define linkonce_odr hidden noundef nonnull align 8 dereferenceable(8) ptr @_ZNK4llvm6Module10getContextEv(ptr noundef nonnull align 8 dereferenceable(857) %0) #1 comdat align 2 {
  %2 = alloca ptr, align 8
  store ptr %0, ptr %2, align 8
  %3 = load ptr, ptr %2, align 8
  %4 = getelementptr inbounds nuw %"class.llvm::Module", ptr %3, i32 0, i32 0
  %5 = load ptr, ptr %4, align 8
  ret ptr %5
}

; Function Attrs: mustprogress nounwind uwtable
define internal noundef zeroext i1 @_ZN12_GLOBAL__N_130DefaultPriorityAdvisorAnalysis16doInitializationERN4llvm6ModuleE(ptr noundef nonnull align 8 dereferenceable(40) %0, ptr noundef nonnull align 8 dereferenceable(857) %1) unnamed_addr #1 align 2 {
  %3 = alloca ptr, align 8
  %4 = alloca ptr, align 8
  %5 = alloca %"class.llvm::Twine", align 8
  store ptr %0, ptr %3, align 8
  store ptr %1, ptr %4, align 8
  %6 = load ptr, ptr %3, align 8
  %7 = getelementptr inbounds nuw %"class.(anonymous namespace)::DefaultPriorityAdvisorAnalysis", ptr %6, i32 0, i32 1
  %8 = load i8, ptr %7, align 8
  %9 = trunc i8 %8 to i1
  br i1 %9, label %10, label %13

10:                                               ; preds = %2
  %11 = load ptr, ptr %4, align 8
  %12 = call noundef nonnull align 8 dereferenceable(8) ptr @_ZNK4llvm6Module10getContextEv(ptr noundef nonnull align 8 dereferenceable(857) %11)
  call void @_ZN4llvm5TwineC2EPKc(ptr noundef nonnull align 8 dereferenceable(34) %5, ptr noundef @.str.15)
  call void @_ZN4llvm11LLVMContext9emitErrorERKNS_5TwineE(ptr noundef nonnull align 8 dereferenceable(8) %12, ptr noundef nonnull align 8 dereferenceable(34) %5)
  br label %13

13:                                               ; preds = %10, %2
  %14 = load ptr, ptr %4, align 8
  %15 = call noundef zeroext i1 @_ZN4llvm4Pass16doInitializationERNS_6ModuleE(ptr noundef nonnull align 8 dereferenceable(28) %6, ptr noundef nonnull align 8 dereferenceable(857) %14)
  ret i1 %15
}