; Function Attrs: mustprogress nounwind uwtable
define internal noundef zeroext i1 @_ZN12_GLOBAL__N_130DefaultPriorityAdvisorAnalysis16doInitializationERN4llvm6ModuleE(ptr nocapture noundef nonnull readonly align 8 dereferenceable(40) %0, ptr nocapture noundef nonnull readonly align 8 dereferenceable(857) %1) unnamed_addr #0 align 2 {
  %3 = alloca %"class.llvm::Twine", align 8
  %4 = getelementptr inbounds nuw i8, ptr %0, i64 32
  %5 = load i8, ptr %4, align 8
  %6 = trunc i8 %5 to i1
  br i1 %6, label %7, label %11

7:                                                ; preds = %2
  %8 = load ptr, ptr %1, align 8
  %9 = getelementptr inbounds nuw i8, ptr %3, i64 32
  %10 = getelementptr inbounds nuw i8, ptr %3, i64 33
  store i8 1, ptr %10, align 1
  store ptr @.str.15, ptr %3, align 8
  store i8 3, ptr %9, align 8
  call void @_ZN4llvm11LLVMContext9emitErrorERKNS_5TwineE(ptr noundef nonnull align 8 dereferenceable(8) %8, ptr noundef nonnull align 8 dereferenceable(34) %3) #17
  br label %11

11:                                               ; preds = %7, %2
  ret i1 false
}